target datalayout = "e-m:e-p270:32:32-p271:32:32-p272:64:64-i64:64-i128:128-f80:128-n8:16:32:64-S128"
target triple = "x86_64-pc-linux-gnu"

%struct.rb_data_type_struct = type { ptr, %struct.anon, ptr, ptr, i64 }
%struct.anon = type { ptr, ptr, ptr, ptr, [1 x ptr] }
%struct.RTypedData = type { %struct.RBasic, ptr, i64, ptr }
%struct.RBasic = type { i64, i64 }

@getcwd_buffer_guard_type = internal constant %struct.rb_data_type_struct { ptr @.str.2, %struct.anon { ptr null, ptr @free, ptr null, ptr null, [1 x ptr] zeroinitializer }, ptr null, ptr null, i64 33 }, align 8
@.str = private unnamed_addr constant [7 x i8] c"getcwd\00", align 1

; Function Attrs: alwaysinline nounwind
define internal ptr @memcpy.inline(ptr noalias nonnull %0, ptr noalias nonnull %1, i64 %2) #13 {
  %4 = alloca ptr, align 8
  %5 = alloca ptr, align 8
  %6 = alloca i64, align 8
  store ptr %0, ptr %4, align 8, !tbaa !28
  store ptr %1, ptr %5, align 8, !tbaa !28
  store i64 %2, ptr %6, align 8, !tbaa !12
  %7 = load ptr, ptr %4, align 8, !tbaa !28
  %8 = load ptr, ptr %5, align 8, !tbaa !28
  %9 = load i64, ptr %6, align 8, !tbaa !12
  %10 = load ptr, ptr %4, align 8, !tbaa !28
  %11 = call i64 @llvm.objectsize.i64.p0(ptr %10, i1 false, i1 true, i1 false)
  %12 = call ptr @__memcpy_chk(ptr noundef %7, ptr noundef %8, i64 noundef %9, i64 noundef %11) #16
  ret ptr %12
}

; Function Attrs: inlinehint nounwind sspstrong memory(argmem: readwrite, inaccessiblemem: readwrite) uwtable
define internal nonnull ptr @ruby_nonempty_memcpy(ptr noundef nonnull %0, ptr noundef %1, i64 noundef %2) #7 {
  %4 = alloca ptr, align 8
  %5 = alloca ptr, align 8
  %6 = alloca ptr, align 8
  %7 = alloca i64, align 8
  store ptr %0, ptr %5, align 8, !tbaa !28
  store ptr %1, ptr %6, align 8, !tbaa !28
  store i64 %2, ptr %7, align 8, !tbaa !12
  %8 = load i64, ptr %7, align 8, !tbaa !12
  %9 = icmp ne i64 %8, 0
  br i1 %9, label %10, label %15

10:                                               ; preds = %3
  %11 = load ptr, ptr %5, align 8, !tbaa !28
  %12 = load ptr, ptr %6, align 8, !tbaa !28
  %13 = load i64, ptr %7, align 8, !tbaa !12
  %14 = call ptr @memcpy.inline(ptr noundef %11, ptr noundef %12, i64 noundef %13) #16
  store ptr %14, ptr %4, align 8
  br label %17

15:                                               ; preds = %3
  %16 = load ptr, ptr %5, align 8, !tbaa !28
  store ptr %16, ptr %4, align 8
  br label %17

17:                                               ; preds = %15, %10
  %18 = load ptr, ptr %4, align 8
  ret ptr %18
}

; Function Attrs: nounwind sspstrong uwtable
define dso_local noalias nonnull ptr @ruby_strdup(ptr noundef nonnull %0) #2 {
  %2 = alloca ptr, align 8
  %3 = alloca ptr, align 8
  %4 = alloca i64, align 8
  store ptr %0, ptr %2, align 8, !tbaa !7
  call void @llvm.lifetime.start.p0(i64 8, ptr %3) #16
  call void @llvm.lifetime.start.p0(i64 8, ptr %4) #16
  %5 = load ptr, ptr %2, align 8, !tbaa !7
  %6 = call i64 @strlen(ptr noundef %5) #18
  %7 = add i64 %6, 1
  store i64 %7, ptr %4, align 8, !tbaa !12
  %8 = load i64, ptr %4, align 8, !tbaa !12
  %9 = call noalias nonnull ptr @ruby_xmalloc(i64 noundef %8) #19
  store ptr %9, ptr %3, align 8, !tbaa !7
  %10 = load ptr, ptr %3, align 8, !tbaa !7
  %11 = load ptr, ptr %2, align 8, !tbaa !7
  %12 = load i64, ptr %4, align 8, !tbaa !12
  %13 = call nonnull ptr @ruby_nonempty_memcpy(ptr noundef %10, ptr noundef %11, i64 noundef %12) #20
  %14 = load ptr, ptr %3, align 8, !tbaa !7
  call void @llvm.lifetime.end.p0(i64 8, ptr %4) #16
  call void @llvm.lifetime.end.p0(i64 8, ptr %3) #16
  ret ptr %14
}

; Function Attrs: nounwind sspstrong uwtable
define dso_local noalias nonnull ptr @ruby_getcwd() #2 {
  %1 = alloca i64, align 8
  %2 = alloca ptr, align 8
  %3 = alloca ptr, align 8
  %4 = alloca ptr, align 8
  %5 = alloca ptr, align 8
  call void @llvm.lifetime.start.p0(i64 8, ptr %1) #16
  %6 = call i64 @rb_data_typed_object_wrap(i64 noundef 0, ptr noundef null, ptr noundef @getcwd_buffer_guard_type)
  store i64 %6, ptr %1, align 8, !tbaa !12
  call void @llvm.lifetime.start.p0(i64 8, ptr %2) #16
  call void @llvm.lifetime.start.p0(i64 8, ptr %3) #16
  %7 = call ptr @getcwd(ptr noundef null, i64 noundef 0) #16
  store ptr %7, ptr %3, align 8, !tbaa !7
  %8 = load ptr, ptr %3, align 8, !tbaa !7
  %9 = load i64, ptr %1, align 8, !tbaa !12
  %10 = inttoptr i64 %9 to ptr
  %11 = getelementptr inbounds nuw %struct.RTypedData, ptr %10, i32 0, i32 3
  store ptr %8, ptr %11, align 8, !tbaa !29
  %12 = load ptr, ptr %3, align 8, !tbaa !7
  %13 = icmp ne ptr %12, null
  br i1 %13, label %15, label %14

14:                                               ; preds = %0
  call void @rb_sys_fail(ptr noundef @.str) #21
  unreachable

15:                                               ; preds = %0
  %16 = load ptr, ptr %3, align 8, !tbaa !7
  %17 = call noalias nonnull ptr @ruby_strdup(ptr noundef %16)
  store ptr %17, ptr %2, align 8, !tbaa !7
  %18 = load ptr, ptr %3, align 8, !tbaa !7
  call void @free(ptr noundef %18) #16
  call void @llvm.lifetime.start.p0(i64 8, ptr %4) #16
  store ptr %1, ptr %4, align 8, !tbaa !14
  call void asm sideeffect "", "*m,~{dirflag},~{fpsr},~{flags}"(ptr elementtype(ptr) %4) #16, !srcloc !33
  %19 = load ptr, ptr %4, align 8, !tbaa !14
  store ptr %19, ptr %5, align 8, !tbaa !14
  call void @llvm.lifetime.end.p0(i64 8, ptr %4) #16
  %20 = load ptr, ptr %5, align 8, !tbaa !14
  %21 = load volatile i64, ptr %20, align 8, !tbaa !12
  %22 = inttoptr i64 %21 to ptr
  %23 = getelementptr inbounds nuw %struct.RTypedData, ptr %22, i32 0, i32 3
  store ptr null, ptr %23, align 8, !tbaa !29
  %24 = load ptr, ptr %2, align 8, !tbaa !7
  call void @llvm.lifetime.end.p0(i64 8, ptr %3) #16
  call void @llvm.lifetime.end.p0(i64 8, ptr %2) #16
  call void @llvm.lifetime.end.p0(i64 8, ptr %1) #16
  ret ptr %24
}