; Function Attrs: nounwind sspstrong uwtable
define dso_local noalias nonnull ptr @ruby_getcwd() local_unnamed_addr #2 {
  %1 = alloca i64, align 8
  %2 = alloca ptr, align 8
  call void @llvm.lifetime.start.p0(i64 8, ptr nonnull %1) #19
  %3 = tail call i64 @rb_data_typed_object_wrap(i64 noundef 0, ptr noundef null, ptr noundef nonnull @getcwd_buffer_guard_type) #19
  store i64 %3, ptr %1, align 8, !tbaa !12
  %4 = tail call ptr @getcwd(ptr noundef null, i64 noundef 0) #19
  %5 = inttoptr i64 %3 to ptr
  %6 = getelementptr inbounds nuw i8, ptr %5, i64 32
  store ptr %4, ptr %6, align 8, !tbaa !22
  %.not = icmp eq ptr %4, null
  br i1 %.not, label %7, label %8

7:                                                ; preds = %0
  tail call void @rb_sys_fail(ptr noundef nonnull @.str) #22
  unreachable

8:                                                ; preds = %0
  %9 = tail call i64 @strlen(ptr noundef nonnull readonly dereferenceable(1) %4) #20
  %10 = add i64 %9, 1
  %11 = tail call noalias nonnull ptr @ruby_xmalloc(i64 noundef %10) #21
  %.not.i.i = icmp eq i64 %10, 0
  br i1 %.not.i.i, label %ruby_strdup.exit, label %12

12:                                               ; preds = %8
  tail call void @llvm.memcpy.p0.p0.i64(ptr noundef nonnull align 1 %11, ptr noundef nonnull readonly align 1 %4, i64 noundef range(i64 1, 0) %10, i1 noundef false) #19
  br label %ruby_strdup.exit

ruby_strdup.exit:                                 ; preds = %8, %12
  tail call void @free(ptr noundef nonnull %4) #19
  call void @llvm.lifetime.start.p0(i64 8, ptr nonnull %2) #19
  store ptr %1, ptr %2, align 8, !tbaa !26
  call void asm sideeffect "", "*m,~{dirflag},~{fpsr},~{flags}"(ptr nonnull elementtype(ptr) %2) #19, !srcloc !28
  %13 = load ptr, ptr %2, align 8, !tbaa !26
  call void @llvm.lifetime.end.p0(i64 8, ptr nonnull %2) #19
  %14 = load volatile i64, ptr %13, align 8, !tbaa !12
  %15 = inttoptr i64 %14 to ptr
  %16 = getelementptr inbounds nuw i8, ptr %15, i64 32
  store ptr null, ptr %16, align 8, !tbaa !22
  call void @llvm.lifetime.end.p0(i64 8, ptr nonnull %1) #19
  ret ptr %11
}